; Function Attrs: mustprogress uwtable
define internal void @"_ZNSt17_Function_handlerIFSt10unique_ptrIN7testing12_GLOBAL__N_113ExampleStructESt14default_deleteIS3_EEvENS2_3$_1EE9_M_invokeERKSt9_Any_data"(ptr noalias nocapture writeonly sret(%"class.std::unique_ptr.237") align 8 %agg.result, ptr nocapture nonnull readnone align 8 %__functor) #3 align 2 personality ptr @__gxx_personality_v0 {
entry:
  tail call void @llvm.experimental.noalias.scope.decl(metadata !251)
  tail call void @llvm.experimental.noalias.scope.decl(metadata !254)
  tail call void @llvm.experimental.noalias.scope.decl(metadata !257)
  tail call void @llvm.experimental.noalias.scope.decl(metadata !260)
  tail call void @llvm.experimental.noalias.scope.decl(metadata !263)
  %call.i.i.i.i.i = tail call noalias noundef nonnull dereferenceable(1) ptr @_Znwm(i64 noundef 1) #25, !noalias !266
  store ptr %call.i.i.i.i.i, ptr %agg.result, align 8, !alias.scope !266
  ret void
}